	.file	"stack_use.c"
	.text
.Ltext0:
	.file 1 "stack_use.c"
	.text
.globl stack_1
	.type	stack_1, @function
stack_1:
.LFB0:
	.loc 1 1 0
	.cfi_startproc
	pushl	%ebp
.LCFI0:
	.cfi_def_cfa_offset 8
	movl	%esp, %ebp
	.cfi_offset 5, -8
.LCFI1:
	.cfi_def_cfa_register 5
	subl	$16, %esp
	.loc 1 3 0
	leave
	ret
	.cfi_endproc
.LFE0:
	.size	stack_1, .-stack_1
.globl stack_2
	.type	stack_2, @function
stack_2:
.LFB1:
	.loc 1 5 0
	.cfi_startproc
	pushl	%ebp
.LCFI2:
	.cfi_def_cfa_offset 8
	movl	%esp, %ebp
	.cfi_offset 5, -8
.LCFI3:
	.cfi_def_cfa_register 5
	subl	$16, %esp
	.loc 1 7 0
	leave
	ret
	.cfi_endproc
.LFE1:
	.size	stack_2, .-stack_2
.globl stack_4
	.type	stack_4, @function
stack_4:
.LFB2:
	.loc 1 9 0
	.cfi_startproc
	pushl	%ebp
.LCFI4:
	.cfi_def_cfa_offset 8
	movl	%esp, %ebp
	.cfi_offset 5, -8
.LCFI5:
	.cfi_def_cfa_register 5
	subl	$16, %esp
	.loc 1 11 0
	leave
	ret
	.cfi_endproc
.LFE2:
	.size	stack_4, .-stack_4
.globl stack_100
	.type	stack_100, @function
stack_100:
.LFB3:
	.loc 1 13 0
	.cfi_startproc
	pushl	%ebp
.LCFI6:
	.cfi_def_cfa_offset 8
	movl	%esp, %ebp
	.cfi_offset 5, -8
.LCFI7:
	.cfi_def_cfa_register 5
	subl	$120, %esp
	.loc 1 13 0
	movl	%gs:20, %eax
	movl	%eax, -12(%ebp)
	xorl	%eax, %eax
	.loc 1 15 0
	movl	-12(%ebp), %eax
	xorl	%gs:20, %eax
	je	.L9
	call	__stack_chk_fail
.L9:
	leave
	ret
	.cfi_endproc
.LFE3:
	.size	stack_100, .-stack_100
.globl main
	.type	main, @function
main:
.LFB4:
	.loc 1 17 0
	.cfi_startproc
	pushl	%ebp
.LCFI8:
	.cfi_def_cfa_offset 8
	movl	%esp, %ebp
	.cfi_offset 5, -8
.LCFI9:
	.cfi_def_cfa_register 5
	andl	$-16, %esp
	.loc 1 18 0
	call	stack_1
	.loc 1 19 0
	call	stack_2
	.loc 1 20 0
	call	stack_4
	.loc 1 21 0
	call	stack_100
	.loc 1 23 0
	movl	$0, %eax
	.loc 1 24 0
	movl	%ebp, %esp
	popl	%ebp
	ret
	.cfi_endproc
.LFE4:
	.size	main, .-main
.Letext0:
	.section	.note.GNU-stack,"",@progbits
